; Function Attrs: nounwind uwtable
define ptr @l_Lean_Expr_headNumArgs_go(ptr noundef %0, ptr noundef %1) local_unnamed_addr #0 {
  br label %.outer

.outer:                                           ; preds = %.outer.backedge, %2
  %.012.ph = phi ptr [ %1, %2 ], [ %.012.ph.be, %.outer.backedge ]
  %.0.ph = phi ptr [ %0, %2 ], [ %14, %.outer.backedge ]
  br label %3

3:                                                ; preds = %.backedge, %.outer
  %.0 = phi ptr [ %.0.ph, %.outer ], [ %.0.be, %.backedge ]
  %4 = ptrtoint ptr %.0 to i64
  %5 = and i64 %4, 1
  %.not.i13 = icmp eq i64 %5, 0
  br i1 %.not.i13, label %9, label %6

6:                                                ; preds = %3
  %7 = lshr i64 %4, 1
  %8 = trunc i64 %7 to i32
  br label %lean_obj_tag.exit

9:                                                ; preds = %3
  %10 = getelementptr i8, ptr %.0, i64 4
  %.val.i = load i32, ptr %10, align 4
  %11 = lshr i32 %.val.i, 24
  br label %lean_obj_tag.exit

lean_obj_tag.exit:                                ; preds = %6, %9
  %.0.i14 = phi i32 [ %8, %6 ], [ %11, %9 ]
  switch i32 %.0.i14, label %37 [
    i32 5, label %12
    i32 8, label %35
    i32 10, label %.backedge
  ]

12:                                               ; preds = %lean_obj_tag.exit
  %13 = getelementptr inbounds nuw i8, ptr %.0, i64 8
  %14 = load ptr, ptr %13, align 8, !tbaa !4
  %15 = ptrtoint ptr %.012.ph to i64
  %16 = and i64 %15, 1
  %.not = icmp eq i64 %16, 0
  br i1 %.not, label %27, label %17, !prof !13

17:                                               ; preds = %12
  %18 = lshr i64 %15, 1
  %19 = add nuw i64 %18, 1
  %20 = icmp sgt i64 %19, -1
  br i1 %20, label %21, label %25, !prof !12

21:                                               ; preds = %17
  %22 = shl nuw i64 %19, 1
  %23 = or disjoint i64 %22, 1
  %24 = inttoptr i64 %23 to ptr
  br label %.outer.backedge

.outer.backedge:                                  ; preds = %21, %25, %34, %33, %31
  %.012.ph.be = phi ptr [ %28, %31 ], [ %28, %33 ], [ %28, %34 ], [ %26, %25 ], [ %24, %21 ]
  br label %.outer

25:                                               ; preds = %17
  %26 = tail call ptr @lean_big_usize_to_nat(i64 noundef range(i64 0, -1) %19) #3
  br label %.outer.backedge

27:                                               ; preds = %12
  %28 = tail call ptr @lean_nat_big_add(ptr noundef %.012.ph, ptr noundef nonnull inttoptr (i64 3 to ptr)) #3
  %29 = load i32, ptr %.012.ph, align 4, !tbaa !9
  %30 = icmp sgt i32 %29, 1
  br i1 %30, label %31, label %33, !prof !12

31:                                               ; preds = %27
  %32 = add nsw i32 %29, -1
  store i32 %32, ptr %.012.ph, align 4, !tbaa !9
  br label %.outer.backedge

33:                                               ; preds = %27
  %.not.i = icmp eq i32 %29, 0
  br i1 %.not.i, label %.outer.backedge, label %34

34:                                               ; preds = %33
  tail call void @lean_dec_ref_cold(ptr noundef nonnull %.012.ph) #3
  br label %.outer.backedge

35:                                               ; preds = %lean_obj_tag.exit
  br label %.backedge

.backedge:                                        ; preds = %lean_obj_tag.exit, %35
  %.sink = phi i64 [ 32, %35 ], [ 16, %lean_obj_tag.exit ]
  %36 = getelementptr inbounds nuw i8, ptr %.0, i64 %.sink
  %.0.be = load ptr, ptr %36, align 8, !tbaa !4
  br label %3

37:                                               ; preds = %lean_obj_tag.exit
  ret ptr %.012.ph
}